target datalayout = "e-m:e-p270:32:32-p271:32:32-p272:64:64-i64:64-i128:128-f80:128-n8:16:32:64-S128"
target triple = "x86_64-unknown-linux-gnu"

%struct.anon = type { i32, ptr }

; Function Attrs: nounwind uwtable
define hidden ptr @mz_error(i32 noundef %err) #0 {
entry:
  %retval = alloca ptr, align 8
  %err.addr = alloca i32, align 4
  %i = alloca i32, align 4
  store i32 %err, ptr %err.addr, align 4
  store i32 0, ptr %i, align 4
  br label %for.cond

for.cond:                                         ; preds = %for.inc, %entry
  %0 = load i32, ptr %i, align 4
  %conv = zext i32 %0 to i64
  %cmp = icmp ult i64 %conv, 10
  br i1 %cmp, label %for.body, label %for.end

for.body:                                         ; preds = %for.cond
  %1 = load i32, ptr %i, align 4
  %idxprom = zext i32 %1 to i64
  %arrayidx = getelementptr inbounds [10 x %struct.anon], ptr @mz_error.s_error_descs, i64 0, i64 %idxprom
  %m_err = getelementptr inbounds %struct.anon, ptr %arrayidx, i32 0, i32 0
  %2 = load i32, ptr %m_err, align 16
  %3 = load i32, ptr %err.addr, align 4
  %cmp2 = icmp eq i32 %2, %3
  br i1 %cmp2, label %if.then, label %if.end

if.then:                                          ; preds = %for.body
  %4 = load i32, ptr %i, align 4
  %idxprom4 = zext i32 %4 to i64
  %arrayidx5 = getelementptr inbounds [10 x %struct.anon], ptr @mz_error.s_error_descs, i64 0, i64 %idxprom4
  %m_pDesc = getelementptr inbounds %struct.anon, ptr %arrayidx5, i32 0, i32 1
  %5 = load ptr, ptr %m_pDesc, align 8
  store ptr %5, ptr %retval, align 8
  br label %return

if.end:                                           ; preds = %for.body
  br label %for.inc

for.inc:                                          ; preds = %if.end
  %6 = load i32, ptr %i, align 4
  %inc = add i32 %6, 1
  store i32 %inc, ptr %i, align 4
  br label %for.cond, !llvm.loop !61

for.end:                                          ; preds = %for.cond
  store ptr null, ptr %retval, align 8
  br label %return

return:                                           ; preds = %for.end, %if.then
  %7 = load ptr, ptr %retval, align 8
  ret ptr %7
}