; Function Attrs: nofree norecurse nosync nounwind memory(none) uwtable
define hidden ptr @mz_error(i32 noundef %err) local_unnamed_addr #12 {
entry:
  br label %for.body

for.cond:                                         ; preds = %for.body
  %indvars.iv.next = add nuw nsw i64 %indvars.iv, 1
  %exitcond.not = icmp eq i64 %indvars.iv.next, 10
  br i1 %exitcond.not, label %return, label %for.body, !llvm.loop !55

for.body:                                         ; preds = %entry, %for.cond
  %indvars.iv = phi i64 [ 0, %entry ], [ %indvars.iv.next, %for.cond ]
  %arrayidx = getelementptr inbounds nuw [10 x %struct.anon], ptr @mz_error.s_error_descs, i64 0, i64 %indvars.iv
  %0 = load i32, ptr %arrayidx, align 16
  %cmp2 = icmp eq i32 %0, %err
  br i1 %cmp2, label %if.then, label %for.cond

if.then:                                          ; preds = %for.body
  %m_pDesc = getelementptr inbounds nuw i8, ptr %arrayidx, i64 8
  %1 = load ptr, ptr %m_pDesc, align 8
  br label %return

return:                                           ; preds = %for.cond, %if.then
  %retval.0 = phi ptr [ %1, %if.then ], [ null, %for.cond ]
  ret ptr %retval.0
}